; Function Attrs: nounwind uwtable
define dso_local void @uv__platform_loop_delete(ptr noundef %0) local_unnamed_addr #0 {
  %2 = getelementptr inbounds nuw i8, ptr %0, i64 840
  %3 = load i32, ptr %2, align 8, !tbaa !4
  %4 = icmp eq i32 %3, -1
  br i1 %4, label %9, label %5

5:                                                ; preds = %1
  %6 = getelementptr inbounds nuw i8, ptr %0, i64 776
  tail call void @uv__io_stop(ptr noundef nonnull %0, ptr noundef nonnull %6, i32 noundef 1) #13
  %7 = load i32, ptr %2, align 8, !tbaa !4
  %8 = tail call i32 @uv__close(i32 noundef %7) #13
  store i32 -1, ptr %2, align 8, !tbaa !4
  br label %9

9:                                                ; preds = %1, %5
  ret void
}